target datalayout = "e-m:e-p270:32:32-p271:32:32-p272:64:64-i64:64-i128:128-f80:128-n8:16:32:64-S128"
target triple = "x86_64-pc-linux-gnu"

%struct._rtpstream_info_calc = type { ptr, i16, ptr, i16, i32, ptr, i32, i32, i32, i32, double, double, double, double, double, double, double, double, i8, double, double, double, double, i32, double, i32, i32 }

; Function Attrs: null_pointer_is_valid sspstrong uwtable
define hidden void @rtpstream_info_calc_free(ptr noundef %0) #2 {
  %2 = alloca ptr, align 8
  store ptr %0, ptr %2, align 8
  %3 = load ptr, ptr %2, align 8
  %4 = getelementptr inbounds nuw %struct._rtpstream_info_calc, ptr %3, i32 0, i32 0
  %5 = load ptr, ptr %4, align 8
  call void @wmem_free(ptr noundef null, ptr noundef %5)
  %6 = load ptr, ptr %2, align 8
  %7 = getelementptr inbounds nuw %struct._rtpstream_info_calc, ptr %6, i32 0, i32 2
  %8 = load ptr, ptr %7, align 8
  call void @wmem_free(ptr noundef null, ptr noundef %8)
  %9 = load ptr, ptr %2, align 8
  %10 = getelementptr inbounds nuw %struct._rtpstream_info_calc, ptr %9, i32 0, i32 5
  %11 = load ptr, ptr %10, align 8
  call void @wmem_free(ptr noundef null, ptr noundef %11)
  ret void
}