; Function Attrs: null_pointer_is_valid sspstrong uwtable
define hidden void @rtpstream_info_calc_free(ptr noundef readonly captures(none) %0) local_unnamed_addr #1 {
  %2 = load ptr, ptr %0, align 8
  tail call void @wmem_free(ptr noundef null, ptr noundef %2)
  %3 = getelementptr inbounds nuw i8, ptr %0, i64 16
  %4 = load ptr, ptr %3, align 8
  tail call void @wmem_free(ptr noundef null, ptr noundef %4)
  %5 = getelementptr inbounds nuw i8, ptr %0, i64 32
  %6 = load ptr, ptr %5, align 8
  tail call void @wmem_free(ptr noundef null, ptr noundef %6)
  ret void
}